; Function Attrs: nounwind uwtable
define i32 @lo_creat(ptr noundef %0, i32 noundef %1) local_unnamed_addr #0 {
  %3 = alloca [1 x %struct.PQArgBlock], align 16
  %4 = alloca i32, align 4
  %5 = alloca i32, align 4
  call void @llvm.lifetime.start.p0(i64 16, ptr nonnull %3) #10
  call void @llvm.lifetime.start.p0(i64 4, ptr nonnull %4) #10
  call void @llvm.lifetime.start.p0(i64 4, ptr nonnull %5) #10
  %6 = tail call fastcc i32 @lo_initialize(ptr noundef %0)
  %7 = icmp slt i32 %6, 0
  br i1 %7, label %19, label %8

8:                                                ; preds = %2
  %9 = getelementptr inbounds nuw i8, ptr %3, i64 4
  store i32 1, ptr %9, align 4
  store i32 4, ptr %3, align 16
  %10 = getelementptr inbounds nuw i8, ptr %3, i64 8
  store i32 %1, ptr %10, align 8
  %11 = getelementptr inbounds nuw i8, ptr %0, i64 976
  %12 = load ptr, ptr %11, align 8
  %13 = getelementptr inbounds nuw i8, ptr %12, i64 8
  %14 = load i32, ptr %13, align 4
  %15 = call ptr @PQfn(ptr noundef %0, i32 noundef %14, ptr noundef nonnull %4, ptr noundef nonnull %5, i32 noundef 1, ptr noundef nonnull %3, i32 noundef 1) #10
  %16 = call i32 @PQresultStatus(ptr noundef %15) #10
  %17 = icmp eq i32 %16, 1
  call void @PQclear(ptr noundef %15) #10
  %18 = load i32, ptr %4, align 4
  %spec.select = select i1 %17, i32 %18, i32 0
  br label %19

19:                                               ; preds = %8, %2
  %.0 = phi i32 [ 0, %2 ], [ %spec.select, %8 ]
  call void @llvm.lifetime.end.p0(i64 4, ptr nonnull %5) #10
  call void @llvm.lifetime.end.p0(i64 4, ptr nonnull %4) #10
  call void @llvm.lifetime.end.p0(i64 16, ptr nonnull %3) #10
  ret i32 %.0
}